target datalayout = "e-m:e-p270:32:32-p271:32:32-p272:64:64-i64:64-i128:128-f80:128-n8:16:32:64-S128"
target triple = "x86_64-pc-linux-gnu"

%struct._value_string = type { i32, ptr }
%struct._packet_info = type { ptr, ptr, i32, i32, %struct.nstime_t, %struct.nstime_t, %struct.nstime_t, i8, ptr, ptr, ptr, ptr, %struct._address, %struct._address, %struct._address, %struct._address, %struct._address, %struct._address, i32, ptr, i8, [3 x i8], %struct.anon, i32, i32, i32, i32, ptr, i8, ptr, ptr, i16, i16, i32, i32, i16, i32, i32, ptr, ptr, ptr, i8, i8, i16, i16, i16, i32, i16, i16, ptr, ptr, ptr, ptr, ptr, i32, i32 }
%struct.nstime_t = type { i64, i32 }
%struct._address = type { i32, i32, ptr, ptr }
%struct.anon = type { i8, [3 x i8] }

@hf_mcpe_message_id = internal global i32 0, align 4
@hf_mcpe_packet_id = internal global i32 0, align 4
@mcpe_packet_names = internal global [4 x %struct._value_string] zeroinitializer, align 16
@ett_mcpe = internal global i32 0, align 4
@.str.43 = private unnamed_addr constant [5 x i8] c"MCPE\00", align 1
@proto_mcpe = internal global i32 0, align 4
@mcpe_handle = internal global ptr null, align 8
@mcpe_packet_dissectors = internal global ptr null, align 8
@.str.63 = private unnamed_addr constant [6 x i8] c" (%s)\00", align 1
@.str.64 = private unnamed_addr constant [16 x i8] c"Unknown ID: %#x\00", align 1
@.str.65 = private unnamed_addr constant [23 x i8] c"Unknown packet ID: %#x\00", align 1
@.str.68 = private unnamed_addr constant [29 x i8] c"%s:%u: failed assertion \22%s\22\00", align 1
@.str.69 = private unnamed_addr constant [30 x i8] c"epan/dissectors/packet-mcpe.c\00", align 1
@.str.70 = private unnamed_addr constant [19 x i8] c"message_id == 0xFE\00", align 1
@.str.71 = private unnamed_addr constant [2 x i8] c"\FE\00", align 1

; Function Attrs: null_pointer_is_valid sspstrong uwtable
define internal zeroext i1 @test_mcpe_heur(ptr noundef %0, ptr noundef %1, ptr noundef %2, ptr noundef %3) #0 {
  %5 = alloca i1, align 1
  %6 = alloca ptr, align 8
  %7 = alloca ptr, align 8
  %8 = alloca ptr, align 8
  %9 = alloca ptr, align 8
  %10 = alloca i8, align 1
  %11 = alloca i32, align 4
  store ptr %0, ptr %6, align 8
  store ptr %1, ptr %7, align 8
  store ptr %2, ptr %8, align 8
  store ptr %3, ptr %9, align 8
  %12 = load ptr, ptr %6, align 8
  %13 = call i32 @tvb_strneql(ptr noundef %12, i32 noundef 0, ptr noundef @.str.71, i64 noundef 1)
  %14 = icmp eq i32 %13, 0
  br i1 %14, label %15, label %36

15:                                               ; preds = %4
  %16 = load ptr, ptr %6, align 8
  %17 = call i32 @tvb_captured_length(ptr noundef %16)
  %18 = icmp uge i32 %17, 2
  br i1 %18, label %19, label %35

19:                                               ; preds = %15
  call void @llvm.lifetime.start.p0(i64 1, ptr %10) #7
  %20 = load ptr, ptr %6, align 8
  %21 = call zeroext i8 @tvb_get_uint8(ptr noundef %20, i32 noundef 1)
  store i8 %21, ptr %10, align 1
  %22 = load ptr, ptr @mcpe_packet_dissectors, align 8
  %23 = load i8, ptr %10, align 1
  %24 = sext i8 %23 to i32
  %25 = call ptr @dissector_get_uint_handle(ptr noundef %22, i32 noundef %24)
  %26 = load ptr, ptr %9, align 8
  store ptr %25, ptr %26, align 8
  %27 = load ptr, ptr %9, align 8
  %28 = load ptr, ptr %27, align 8
  %29 = icmp ne ptr %28, null
  br i1 %29, label %30, label %31

30:                                               ; preds = %19
  store i1 true, ptr %5, align 1
  store i32 1, ptr %11, align 4
  br label %32

31:                                               ; preds = %19
  store i32 0, ptr %11, align 4
  br label %32

32:                                               ; preds = %31, %30
  call void @llvm.lifetime.end.p0(i64 1, ptr %10) #7
  %33 = load i32, ptr %11, align 4
  switch i32 %33, label %39 [
    i32 0, label %34
    i32 1, label %37
  ]

34:                                               ; preds = %32
  br label %35

35:                                               ; preds = %34, %15
  br label %36

36:                                               ; preds = %35, %4
  store i1 false, ptr %5, align 1
  br label %37

37:                                               ; preds = %36, %32
  %38 = load i1, ptr %5, align 1
  ret i1 %38

39:                                               ; preds = %32
  unreachable
}

; Function Attrs: null_pointer_is_valid sspstrong uwtable
define internal zeroext i1 @dissect_mcpe_heur(ptr noundef %0, ptr noundef %1, ptr noundef %2, ptr noundef %3) #0 {
  %5 = alloca i1, align 1
  %6 = alloca ptr, align 8
  %7 = alloca ptr, align 8
  %8 = alloca ptr, align 8
  %9 = alloca ptr, align 8
  %10 = alloca ptr, align 8
  %11 = alloca ptr, align 8
  %12 = alloca ptr, align 8
  %13 = alloca i32, align 4
  %14 = alloca i32, align 4
  %15 = alloca ptr, align 8
  %16 = alloca i32, align 4
  store ptr %0, ptr %6, align 8
  store ptr %1, ptr %7, align 8
  store ptr %2, ptr %8, align 8
  store ptr %3, ptr %9, align 8
  call void @llvm.lifetime.start.p0(i64 8, ptr %10) #7
  %17 = load ptr, ptr %6, align 8
  %18 = load ptr, ptr %7, align 8
  %19 = load ptr, ptr %8, align 8
  %20 = call zeroext i1 @test_mcpe_heur(ptr noundef %17, ptr noundef %18, ptr noundef %19, ptr noundef %10)
  br i1 %20, label %21, label %68

21:                                               ; preds = %4
  call void @llvm.lifetime.start.p0(i64 8, ptr %11) #7
  call void @llvm.lifetime.start.p0(i64 8, ptr %12) #7
  call void @llvm.lifetime.start.p0(i64 4, ptr %13) #7
  call void @llvm.lifetime.start.p0(i64 4, ptr %14) #7
  call void @llvm.lifetime.start.p0(i64 8, ptr %15) #7
  %22 = load ptr, ptr %7, align 8
  %23 = load ptr, ptr @mcpe_handle, align 8
  call void @raknet_conversation_set_dissector(ptr noundef %22, ptr noundef %23)
  %24 = load ptr, ptr %7, align 8
  %25 = getelementptr inbounds nuw %struct._packet_info, ptr %24, i32 0, i32 1
  %26 = load ptr, ptr %25, align 8
  call void @col_set_str(ptr noundef %26, i32 noundef 35, ptr noundef @.str.43)
  %27 = load ptr, ptr %7, align 8
  %28 = getelementptr inbounds nuw %struct._packet_info, ptr %27, i32 0, i32 1
  %29 = load ptr, ptr %28, align 8
  call void @col_clear(ptr noundef %29, i32 noundef 25)
  %30 = load ptr, ptr %8, align 8
  %31 = load i32, ptr @proto_mcpe, align 4
  %32 = load ptr, ptr %6, align 8
  %33 = call ptr @proto_tree_add_item(ptr noundef %30, i32 noundef %31, ptr noundef %32, i32 noundef 0, i32 noundef -1, i32 noundef 0)
  store ptr %33, ptr %11, align 8
  %34 = load ptr, ptr %11, align 8
  %35 = load i32, ptr @ett_mcpe, align 4
  %36 = call ptr @proto_item_add_subtree(ptr noundef %34, i32 noundef %35)
  store ptr %36, ptr %12, align 8
  %37 = load ptr, ptr %12, align 8
  %38 = load i32, ptr @hf_mcpe_message_id, align 4
  %39 = load ptr, ptr %6, align 8
  %40 = call ptr @proto_tree_add_item_ret_uint(ptr noundef %37, i32 noundef %38, ptr noundef %39, i32 noundef 0, i32 noundef 1, i32 noundef 0, ptr noundef %13)
  %41 = load i32, ptr %13, align 4
  %42 = icmp eq i32 %41, 254
  br i1 %42, label %43, label %44

43:                                               ; preds = %21
  br label %46

44:                                               ; preds = %21
  call void (ptr, ...) @proto_report_dissector_bug(ptr noundef @.str.68, ptr noundef @.str.69, i32 noundef 444, ptr noundef @.str.70) #8
  unreachable

45:                                               ; No predecessors!
  br label %46

46:                                               ; preds = %45, %43
  %47 = load ptr, ptr %12, align 8
  %48 = load i32, ptr @hf_mcpe_packet_id, align 4
  %49 = load ptr, ptr %6, align 8
  %50 = call ptr @proto_tree_add_item_ret_uint(ptr noundef %47, i32 noundef %48, ptr noundef %49, i32 noundef 1, i32 noundef 1, i32 noundef 0, ptr noundef %14)
  %51 = load ptr, ptr %11, align 8
  %52 = load i32, ptr %14, align 4
  %53 = call ptr @val_to_str(i32 noundef %52, ptr noundef @mcpe_packet_names, ptr noundef @.str.64)
  call void (ptr, ptr, ...) @proto_item_append_text(ptr noundef %51, ptr noundef @.str.63, ptr noundef %53)
  %54 = load ptr, ptr %7, align 8
  %55 = getelementptr inbounds nuw %struct._packet_info, ptr %54, i32 0, i32 1
  %56 = load ptr, ptr %55, align 8
  %57 = load i32, ptr %14, align 4
  %58 = call ptr @val_to_str(i32 noundef %57, ptr noundef @mcpe_packet_names, ptr noundef @.str.65)
  call void @col_add_str(ptr noundef %56, i32 noundef 25, ptr noundef %58)
  %59 = load ptr, ptr %6, align 8
  %60 = call ptr @tvb_new_subset_remaining(ptr noundef %59, i32 noundef 1)
  store ptr %60, ptr %15, align 8
  %61 = load ptr, ptr %10, align 8
  %62 = load ptr, ptr %15, align 8
  %63 = load ptr, ptr %7, align 8
  %64 = load ptr, ptr %12, align 8
  %65 = load ptr, ptr %9, align 8
  %66 = call i32 @call_dissector_only(ptr noundef %61, ptr noundef %62, ptr noundef %63, ptr noundef %64, ptr noundef %65)
  %67 = icmp sgt i32 %66, 0
  store i1 %67, ptr %5, align 1
  store i32 1, ptr %16, align 4
  call void @llvm.lifetime.end.p0(i64 8, ptr %15) #7
  call void @llvm.lifetime.end.p0(i64 4, ptr %14) #7
  call void @llvm.lifetime.end.p0(i64 4, ptr %13) #7
  call void @llvm.lifetime.end.p0(i64 8, ptr %12) #7
  call void @llvm.lifetime.end.p0(i64 8, ptr %11) #7
  br label %69

68:                                               ; preds = %4
  store i1 false, ptr %5, align 1
  store i32 1, ptr %16, align 4
  br label %69

69:                                               ; preds = %68, %46
  call void @llvm.lifetime.end.p0(i64 8, ptr %10) #7
  %70 = load i1, ptr %5, align 1
  ret i1 %70
}