; Function Attrs: null_pointer_is_valid sspstrong uwtable
define internal zeroext i1 @dissect_mcpe_heur(ptr noundef %0, ptr noundef %1, ptr noundef %2, ptr noundef %3) #0 {
  %5 = alloca i32, align 4
  %6 = alloca i32, align 4
  %7 = tail call i32 @tvb_strneql(ptr noundef %0, i32 noundef 0, ptr noundef nonnull @.str.71, i64 noundef 1)
  %8 = icmp eq i32 %7, 0
  br i1 %8, label %9, label %test_mcpe_heur.exit.thread

9:                                                ; preds = %4
  %10 = tail call i32 @tvb_captured_length(ptr noundef %0)
  %11 = icmp ugt i32 %10, 1
  br i1 %11, label %12, label %test_mcpe_heur.exit.thread

12:                                               ; preds = %9
  %13 = tail call zeroext i8 @tvb_get_uint8(ptr noundef %0, i32 noundef 1)
  %14 = load ptr, ptr @mcpe_packet_dissectors, align 8
  %15 = sext i8 %13 to i32
  %16 = tail call ptr @dissector_get_uint_handle(ptr noundef %14, i32 noundef %15)
  %.not.not.i = icmp eq ptr %16, null
  br i1 %.not.not.i, label %test_mcpe_heur.exit.thread, label %test_mcpe_heur.exit

test_mcpe_heur.exit:                              ; preds = %12
  call void @llvm.lifetime.start.p0(i64 4, ptr nonnull %5) #6
  call void @llvm.lifetime.start.p0(i64 4, ptr nonnull %6) #6
  %17 = load ptr, ptr @mcpe_handle, align 8
  tail call void @raknet_conversation_set_dissector(ptr noundef %1, ptr noundef %17)
  %18 = getelementptr inbounds nuw i8, ptr %1, i64 8
  %19 = load ptr, ptr %18, align 8
  tail call void @col_set_str(ptr noundef %19, i32 noundef 35, ptr noundef nonnull @.str.43)
  %20 = load ptr, ptr %18, align 8
  tail call void @col_clear(ptr noundef %20, i32 noundef 25)
  %21 = load i32, ptr @proto_mcpe, align 4
  %22 = tail call ptr @proto_tree_add_item(ptr noundef %2, i32 noundef %21, ptr noundef %0, i32 noundef 0, i32 noundef -1, i32 noundef 0)
  %23 = load i32, ptr @ett_mcpe, align 4
  %24 = tail call ptr @proto_item_add_subtree(ptr noundef %22, i32 noundef %23)
  %25 = load i32, ptr @hf_mcpe_message_id, align 4
  %26 = call ptr @proto_tree_add_item_ret_uint(ptr noundef %24, i32 noundef %25, ptr noundef %0, i32 noundef 0, i32 noundef 1, i32 noundef 0, ptr noundef nonnull %5)
  %27 = load i32, ptr %5, align 4
  %28 = icmp eq i32 %27, 254
  br i1 %28, label %30, label %29

29:                                               ; preds = %test_mcpe_heur.exit
  call void (ptr, ...) @proto_report_dissector_bug(ptr noundef nonnull @.str.68, ptr noundef nonnull @.str.69, i32 noundef 444, ptr noundef nonnull @.str.70) #7
  unreachable

30:                                               ; preds = %test_mcpe_heur.exit
  %31 = load i32, ptr @hf_mcpe_packet_id, align 4
  %32 = call ptr @proto_tree_add_item_ret_uint(ptr noundef %24, i32 noundef %31, ptr noundef %0, i32 noundef 1, i32 noundef 1, i32 noundef 0, ptr noundef nonnull %6)
  %33 = load i32, ptr %6, align 4
  %34 = call ptr @val_to_str(i32 noundef %33, ptr noundef nonnull @mcpe_packet_names, ptr noundef nonnull @.str.64)
  call void (ptr, ptr, ...) @proto_item_append_text(ptr noundef %22, ptr noundef nonnull @.str.63, ptr noundef %34)
  %35 = load ptr, ptr %18, align 8
  %36 = load i32, ptr %6, align 4
  %37 = call ptr @val_to_str(i32 noundef %36, ptr noundef nonnull @mcpe_packet_names, ptr noundef nonnull @.str.65)
  call void @col_add_str(ptr noundef %35, i32 noundef 25, ptr noundef %37)
  %38 = call ptr @tvb_new_subset_remaining(ptr noundef %0, i32 noundef 1)
  %39 = call i32 @call_dissector_only(ptr noundef nonnull %16, ptr noundef %38, ptr noundef %1, ptr noundef %24, ptr noundef %3)
  %40 = icmp sgt i32 %39, 0
  call void @llvm.lifetime.end.p0(i64 4, ptr nonnull %6) #6
  call void @llvm.lifetime.end.p0(i64 4, ptr nonnull %5) #6
  br label %test_mcpe_heur.exit.thread

test_mcpe_heur.exit.thread:                       ; preds = %12, %4, %9, %30
  %.0 = phi i1 [ %40, %30 ], [ false, %9 ], [ false, %4 ], [ false, %12 ]
  ret i1 %.0
}